target datalayout = "e-m:e-p270:32:32-p271:32:32-p272:64:64-i64:64-i128:128-f80:128-n8:16:32:64-S128"
target triple = "x86_64-pc-linux-gnu"

%struct.h223_lc_params = type { i32, ptr, i8, ptr }

@ett_h245_H223LogicalChannelParameters = internal global i32 0, align 4
@h223_lc_params_temp = internal global ptr null, align 8
@h223_fw_lc_params = internal global ptr null, align 8

; Function Attrs: null_pointer_is_valid sspstrong uwtable
define hidden i32 @dissect_h245_H223LogicalChannelParameters(ptr noundef %0, i32 noundef %1, ptr noundef %2, ptr noundef %3, i32 noundef %4) #1 {
  %6 = alloca ptr, align 8
  %7 = alloca i32, align 4
  %8 = alloca ptr, align 8
  %9 = alloca ptr, align 8
  %10 = alloca i32, align 4
  store ptr %0, ptr %6, align 8
  store i32 %1, ptr %7, align 4
  store ptr %2, ptr %8, align 8
  store ptr %3, ptr %9, align 8
  store i32 %4, ptr %10, align 4
  %11 = load ptr, ptr %6, align 8
  %12 = load i32, ptr %7, align 4
  %13 = load ptr, ptr %8, align 8
  %14 = load ptr, ptr %9, align 8
  %15 = load i32, ptr %10, align 4
  %16 = load i32, ptr @ett_h245_H223LogicalChannelParameters, align 4
  %17 = call i32 @dissect_per_sequence(ptr noundef %11, i32 noundef %12, ptr noundef %13, ptr noundef %14, i32 noundef %15, i32 noundef %16, ptr noundef @H223LogicalChannelParameters_sequence)
  store i32 %17, ptr %7, align 4
  %18 = load i32, ptr %7, align 4
  ret i32 %18
}

; Function Attrs: null_pointer_is_valid sspstrong uwtable
define internal i32 @dissect_h245_OLC_fw_h223_params(ptr noundef %0, i32 noundef %1, ptr noundef %2, ptr noundef %3, i32 noundef %4) #1 {
  %6 = alloca ptr, align 8
  %7 = alloca i32, align 4
  %8 = alloca ptr, align 8
  %9 = alloca ptr, align 8
  %10 = alloca i32, align 4
  store ptr %0, ptr %6, align 8
  store i32 %1, ptr %7, align 4
  store ptr %2, ptr %8, align 8
  store ptr %3, ptr %9, align 8
  store i32 %4, ptr %10, align 4
  %11 = call ptr @wmem_file_scope()
  %12 = call noalias ptr @wmem_alloc(ptr noundef %11, i64 noundef 32) #13
  store ptr %12, ptr @h223_fw_lc_params, align 8
  %13 = load ptr, ptr @h223_fw_lc_params, align 8
  %14 = getelementptr inbounds nuw %struct.h223_lc_params, ptr %13, i32 0, i32 0
  store i32 0, ptr %14, align 8
  %15 = load ptr, ptr @h223_fw_lc_params, align 8
  %16 = getelementptr inbounds nuw %struct.h223_lc_params, ptr %15, i32 0, i32 1
  store ptr null, ptr %16, align 8
  %17 = load ptr, ptr @h223_fw_lc_params, align 8
  %18 = getelementptr inbounds nuw %struct.h223_lc_params, ptr %17, i32 0, i32 2
  store i8 0, ptr %18, align 8
  %19 = load ptr, ptr @h223_fw_lc_params, align 8
  %20 = getelementptr inbounds nuw %struct.h223_lc_params, ptr %19, i32 0, i32 3
  store ptr null, ptr %20, align 8
  %21 = load ptr, ptr @h223_fw_lc_params, align 8
  store ptr %21, ptr @h223_lc_params_temp, align 8
  %22 = load ptr, ptr %6, align 8
  %23 = load i32, ptr %7, align 4
  %24 = load ptr, ptr %8, align 8
  %25 = load ptr, ptr %9, align 8
  %26 = load i32, ptr %10, align 4
  %27 = call i32 @dissect_h245_H223LogicalChannelParameters(ptr noundef %22, i32 noundef %23, ptr noundef %24, ptr noundef %25, i32 noundef %26)
  store i32 %27, ptr %7, align 4
  %28 = load i32, ptr %7, align 4
  ret i32 %28
}