; Function Attrs: null_pointer_is_valid sspstrong uwtable
define internal i32 @dissect_h245_OLC_fw_h223_params(ptr noundef %0, i32 noundef %1, ptr noundef %2, ptr noundef %3, i32 noundef %4) #1 {
  %6 = tail call ptr @wmem_file_scope()
  %7 = tail call noalias dereferenceable_or_null(32) ptr @wmem_alloc(ptr noundef %6, i64 noundef 32) #11
  store ptr %7, ptr @h223_fw_lc_params, align 8
  store i32 0, ptr %7, align 8
  %8 = getelementptr inbounds nuw i8, ptr %7, i64 8
  store ptr null, ptr %8, align 8
  %9 = getelementptr inbounds nuw i8, ptr %7, i64 16
  store i8 0, ptr %9, align 8
  %10 = getelementptr inbounds nuw i8, ptr %7, i64 24
  store ptr null, ptr %10, align 8
  store ptr %7, ptr @h223_lc_params_temp, align 8
  %11 = load i32, ptr @ett_h245_H223LogicalChannelParameters, align 4
  %12 = tail call i32 @dissect_per_sequence(ptr noundef %0, i32 noundef %1, ptr noundef %2, ptr noundef %3, i32 noundef %4, i32 noundef %11, ptr noundef nonnull @H223LogicalChannelParameters_sequence)
  ret i32 %12
}